target datalayout = "e-m:e-p270:32:32-p271:32:32-p272:64:64-i64:64-i128:128-f80:128-n8:16:32:64-S128"
target triple = "x86_64-pc-linux-gnu"

@proto_register_aprs.ett = internal global [6 x ptr] [ptr @ett_aprs, ptr @ett_aprs_msg, ptr @ett_aprs_ct, ptr @ett_aprs_weather, ptr @ett_aprs_storm, ptr @ett_aprs_mic_e], align 16
@.str.184 = private unnamed_addr constant [36 x i8] c"Automatic Position Reporting System\00", align 1
@.str.185 = private unnamed_addr constant [5 x i8] c"APRS\00", align 1
@.str.186 = private unnamed_addr constant [5 x i8] c"aprs\00", align 1
@proto_aprs = internal global i32 0, align 4
@.str.187 = private unnamed_addr constant [12 x i8] c"showaprslax\00", align 1
@.str.188 = private unnamed_addr constant [23 x i8] c"Allow APRS violations.\00", align 1
@.str.189 = private unnamed_addr constant [61 x i8] c"Attempt to display common APRS protocol violations correctly\00", align 1
@gPREF_APRS_LAX = internal global i8 0, align 1

; Function Attrs: null_pointer_is_valid sspstrong uwtable
define hidden void @proto_register_aprs() #0 {
  %1 = alloca ptr, align 8
  call void @llvm.lifetime.start.p0(i64 8, ptr %1) #9
  %2 = call i32 @proto_register_protocol(ptr noundef @.str.184, ptr noundef @.str.185, ptr noundef @.str.186)
  store i32 %2, ptr @proto_aprs, align 4
  %3 = load i32, ptr @proto_aprs, align 4
  %4 = call ptr @register_dissector(ptr noundef @.str.186, ptr noundef @dissect_aprs, i32 noundef %3)
  %5 = load i32, ptr @proto_aprs, align 4
  call void @proto_register_field_array(i32 noundef %5, ptr noundef @proto_register_aprs.hf, i32 noundef 88)
  call void @proto_register_subtree_array(ptr noundef @proto_register_aprs.ett, i32 noundef 6)
  %6 = load i32, ptr @proto_aprs, align 4
  %7 = call ptr @prefs_register_protocol(i32 noundef %6, ptr noundef null)
  store ptr %7, ptr %1, align 8
  %8 = load ptr, ptr %1, align 8
  call void @prefs_register_bool_preference(ptr noundef %8, ptr noundef @.str.187, ptr noundef @.str.188, ptr noundef @.str.189, ptr noundef @gPREF_APRS_LAX)
  call void @llvm.lifetime.end.p0(i64 8, ptr %1) #9
  ret void
}