; Function Attrs: null_pointer_is_valid sspstrong uwtable
define hidden void @proto_register_aprs() local_unnamed_addr #0 {
  %1 = tail call i32 @proto_register_protocol(ptr noundef nonnull @.str.184, ptr noundef nonnull @.str.185, ptr noundef nonnull @.str.186)
  store i32 %1, ptr @proto_aprs, align 4
  %2 = tail call ptr @register_dissector(ptr noundef nonnull @.str.186, ptr noundef nonnull @dissect_aprs, i32 noundef %1)
  %3 = load i32, ptr @proto_aprs, align 4
  tail call void @proto_register_field_array(i32 noundef %3, ptr noundef nonnull @proto_register_aprs.hf, i32 noundef 88)
  tail call void @proto_register_subtree_array(ptr noundef nonnull @proto_register_aprs.ett, i32 noundef 6)
  %4 = load i32, ptr @proto_aprs, align 4
  %5 = tail call ptr @prefs_register_protocol(i32 noundef %4, ptr noundef null)
  tail call void @prefs_register_bool_preference(ptr noundef %5, ptr noundef nonnull @.str.187, ptr noundef nonnull @.str.188, ptr noundef nonnull @.str.189, ptr noundef nonnull @gPREF_APRS_LAX)
  ret void
}